; Function Attrs: nounwind uwtable
define internal fastcc noalias nonnull ptr @_init_l_Array_forIn_x27Unsafe_loop___at_Lean_Core_wrapAsyncAsSnapshot___spec__12___closed__2() unnamed_addr #1 {
  %1 = load double, ptr @l_Lean_withTraceNode___at_Lean_Core_wrapAsyncAsSnapshot___spec__1___lambda__2___closed__1, align 8, !tbaa !21
  %2 = load ptr, ptr @l_Lean_initFn____x40_Lean_CoreM___hyg_80____closed__3, align 8, !tbaa !9
  tail call void @lean_inc_heartbeat() #7
  %3 = tail call noalias ptr @mi_malloc_small(i64 noundef 48) #7
  %4 = icmp eq ptr %3, null
  br i1 %4, label %5, label %lean_alloc_ctor.exit

5:                                                ; preds = %0
  tail call void @lean_internal_panic_out_of_memory() #8
  unreachable

lean_alloc_ctor.exit:                             ; preds = %0
  %6 = getelementptr inbounds nuw i8, ptr %3, i64 4
  %7 = getelementptr inbounds nuw i8, ptr %3, i64 40
  store i64 1, ptr %7, align 8, !tbaa !12
  store i32 1, ptr %3, align 4, !tbaa !4
  store i32 131120, ptr %6, align 4
  %8 = getelementptr inbounds nuw i8, ptr %3, i64 8
  store ptr inttoptr (i64 1 to ptr), ptr %8, align 8, !tbaa !9
  %9 = getelementptr inbounds nuw i8, ptr %3, i64 16
  store ptr %2, ptr %9, align 8, !tbaa !9
  %10 = getelementptr inbounds nuw i8, ptr %3, i64 24
  store double %1, ptr %10, align 8, !tbaa !21
  %11 = getelementptr inbounds nuw i8, ptr %3, i64 32
  store double %1, ptr %11, align 8, !tbaa !21
  ret ptr %3
}